target datalayout = "e-m:e-p270:32:32-p271:32:32-p272:64:64-i64:64-i128:128-f80:128-n8:16:32:64-S128"
target triple = "x86_64-pc-linux-gnu"

; Function Attrs: mustprogress nounwind uwtable
define void @_ZN8LightGBM12GetStatisticEPKcPiS2_S2_(ptr noundef %0, ptr noundef %1, ptr noundef %2, ptr noundef %3) #4 {
  %5 = alloca ptr, align 8
  %6 = alloca ptr, align 8
  %7 = alloca ptr, align 8
  %8 = alloca ptr, align 8
  %9 = alloca i32, align 4
  store ptr %0, ptr %5, align 8, !tbaa !4
  store ptr %1, ptr %6, align 8, !tbaa !9
  store ptr %2, ptr %7, align 8, !tbaa !9
  store ptr %3, ptr %8, align 8, !tbaa !9
  %10 = load ptr, ptr %6, align 8, !tbaa !9
  store i32 0, ptr %10, align 4, !tbaa !11
  %11 = load ptr, ptr %7, align 8, !tbaa !9
  store i32 0, ptr %11, align 4, !tbaa !11
  %12 = load ptr, ptr %8, align 8, !tbaa !9
  store i32 0, ptr %12, align 4, !tbaa !11
  call void @llvm.lifetime.start.p0(i64 4, ptr %9) #3
  store i32 0, ptr %9, align 4, !tbaa !11
  br label %13

13:                                               ; preds = %61, %4
  %14 = load ptr, ptr %5, align 8, !tbaa !4
  %15 = load i32, ptr %9, align 4, !tbaa !11
  %16 = sext i32 %15 to i64
  %17 = getelementptr inbounds i8, ptr %14, i64 %16
  %18 = load i8, ptr %17, align 1, !tbaa !13
  %19 = sext i8 %18 to i32
  %20 = icmp ne i32 %19, 0
  br i1 %20, label %22, label %21

21:                                               ; preds = %13
  call void @llvm.lifetime.end.p0(i64 4, ptr %9) #3
  br label %64

22:                                               ; preds = %13
  %23 = load ptr, ptr %5, align 8, !tbaa !4
  %24 = load i32, ptr %9, align 4, !tbaa !11
  %25 = sext i32 %24 to i64
  %26 = getelementptr inbounds i8, ptr %23, i64 %25
  %27 = load i8, ptr %26, align 1, !tbaa !13
  %28 = sext i8 %27 to i32
  %29 = icmp eq i32 %28, 44
  br i1 %29, label %30, label %34

30:                                               ; preds = %22
  %31 = load ptr, ptr %6, align 8, !tbaa !9
  %32 = load i32, ptr %31, align 4, !tbaa !11
  %33 = add nsw i32 %32, 1
  store i32 %33, ptr %31, align 4, !tbaa !11
  br label %60

34:                                               ; preds = %22
  %35 = load ptr, ptr %5, align 8, !tbaa !4
  %36 = load i32, ptr %9, align 4, !tbaa !11
  %37 = sext i32 %36 to i64
  %38 = getelementptr inbounds i8, ptr %35, i64 %37
  %39 = load i8, ptr %38, align 1, !tbaa !13
  %40 = sext i8 %39 to i32
  %41 = icmp eq i32 %40, 9
  br i1 %41, label %42, label %46

42:                                               ; preds = %34
  %43 = load ptr, ptr %7, align 8, !tbaa !9
  %44 = load i32, ptr %43, align 4, !tbaa !11
  %45 = add nsw i32 %44, 1
  store i32 %45, ptr %43, align 4, !tbaa !11
  br label %59

46:                                               ; preds = %34
  %47 = load ptr, ptr %5, align 8, !tbaa !4
  %48 = load i32, ptr %9, align 4, !tbaa !11
  %49 = sext i32 %48 to i64
  %50 = getelementptr inbounds i8, ptr %47, i64 %49
  %51 = load i8, ptr %50, align 1, !tbaa !13
  %52 = sext i8 %51 to i32
  %53 = icmp eq i32 %52, 58
  br i1 %53, label %54, label %58

54:                                               ; preds = %46
  %55 = load ptr, ptr %8, align 8, !tbaa !9
  %56 = load i32, ptr %55, align 4, !tbaa !11
  %57 = add nsw i32 %56, 1
  store i32 %57, ptr %55, align 4, !tbaa !11
  br label %58

58:                                               ; preds = %54, %46
  br label %59

59:                                               ; preds = %58, %42
  br label %60

60:                                               ; preds = %59, %30
  br label %61

61:                                               ; preds = %60
  %62 = load i32, ptr %9, align 4, !tbaa !11
  %63 = add nsw i32 %62, 1
  store i32 %63, ptr %9, align 4, !tbaa !11
  br label %13, !llvm.loop !14

64:                                               ; preds = %21
  ret void
}