; Function Attrs: mustprogress nofree norecurse nosync nounwind memory(readwrite, inaccessiblemem: none) uwtable
define void @_ZN8LightGBM12GetStatisticEPKcPiS2_S2_(ptr noundef readonly captures(none) %0, ptr noundef captures(none) initializes((0, 4)) %1, ptr noundef captures(none) initializes((0, 4)) %2, ptr noundef captures(none) initializes((0, 4)) %3) local_unnamed_addr #3 {
  store i32 0, ptr %1, align 4, !tbaa !4
  store i32 0, ptr %2, align 4, !tbaa !4
  store i32 0, ptr %3, align 4, !tbaa !4
  br label %5

5:                                                ; preds = %13, %4
  %indvars.iv = phi i64 [ %indvars.iv.next, %13 ], [ 0, %4 ]
  %6 = getelementptr inbounds nuw i8, ptr %0, i64 %indvars.iv
  %7 = load i8, ptr %6, align 1, !tbaa !8
  switch i8 %7, label %13 [
    i8 0, label %8
    i8 44, label %.sink.split
    i8 9, label %9
    i8 58, label %10
  ]

8:                                                ; preds = %5
  ret void

9:                                                ; preds = %5
  br label %.sink.split

10:                                               ; preds = %5
  br label %.sink.split

.sink.split:                                      ; preds = %5, %9, %10
  %.sink = phi ptr [ %3, %10 ], [ %2, %9 ], [ %1, %5 ]
  %11 = load i32, ptr %.sink, align 4, !tbaa !4
  %12 = add nsw i32 %11, 1
  store i32 %12, ptr %.sink, align 4, !tbaa !4
  br label %13

13:                                               ; preds = %.sink.split, %5
  %indvars.iv.next = add nuw nsw i64 %indvars.iv, 1
  br label %5, !llvm.loop !9
}